target datalayout = "e-m:e-p270:32:32-p271:32:32-p272:64:64-i64:64-i128:128-f80:128-n8:16:32:64-S128"
target triple = "x86_64-pc-linux-gnu"

%"class.smt::eq_justification" = type { ptr }
%"class.smt::enode" = type { ptr, ptr, ptr, ptr, i32, i32, i32, i16, i32, i8, i8, %class.ptr_vector.213, %class.id_var_list, %"struct.smt::trans_justification", %class.approx_set, %class.approx_set, [0 x ptr] }
%class.ptr_vector.213 = type { %class.vector.214 }
%class.vector.214 = type { ptr }
%class.id_var_list = type { i32, ptr }
%"struct.smt::trans_justification" = type { ptr, %"class.smt::eq_justification" }
%class.approx_set = type { %class.approx_set_tpl.310 }
%class.approx_set_tpl.310 = type { i64 }

; Function Attrs: mustprogress uwtable
define hidden void @_ZN3smt19conflict_resolution18eq_branch2literalsEPNS_5enodeES2_(ptr noundef nonnull align 8 dereferenceable(356) %0, ptr noundef %1, ptr noundef %2) #6 align 2 {
  %4 = alloca ptr, align 8
  %5 = alloca ptr, align 8
  %6 = alloca ptr, align 8
  %7 = alloca %"class.smt::eq_justification", align 8
  store ptr %0, ptr %4, align 8, !tbaa !28
  store ptr %1, ptr %5, align 8, !tbaa !144
  store ptr %2, ptr %6, align 8, !tbaa !144
  %8 = load ptr, ptr %4, align 8
  br label %9

9:                                                ; preds = %13, %3
  %10 = load ptr, ptr %5, align 8, !tbaa !144
  %11 = load ptr, ptr %6, align 8, !tbaa !144
  %12 = icmp ne ptr %10, %11
  br i1 %12, label %13, label %28

13:                                               ; preds = %9
  %14 = load ptr, ptr %5, align 8, !tbaa !144
  %15 = load ptr, ptr %5, align 8, !tbaa !144
  %16 = getelementptr inbounds nuw %"class.smt::enode", ptr %15, i32 0, i32 13
  %17 = getelementptr inbounds nuw %"struct.smt::trans_justification", ptr %16, i32 0, i32 0
  %18 = load ptr, ptr %17, align 8, !tbaa !146
  %19 = load ptr, ptr %5, align 8, !tbaa !144
  %20 = getelementptr inbounds nuw %"class.smt::enode", ptr %19, i32 0, i32 13
  %21 = getelementptr inbounds nuw %"struct.smt::trans_justification", ptr %20, i32 0, i32 1
  call void @llvm.memcpy.p0.p0.i64(ptr align 8 %7, ptr align 8 %21, i64 8, i1 false), !tbaa.struct !199
  %22 = getelementptr inbounds nuw %"class.smt::eq_justification", ptr %7, i32 0, i32 0
  %23 = load ptr, ptr %22, align 8
  call void @_ZN3smt19conflict_resolution25eq_justification2literalsEPNS_5enodeES2_NS_16eq_justificationE(ptr noundef nonnull align 8 dereferenceable(356) %8, ptr noundef %14, ptr noundef %18, ptr %23)
  %24 = load ptr, ptr %5, align 8, !tbaa !144
  %25 = getelementptr inbounds nuw %"class.smt::enode", ptr %24, i32 0, i32 13
  %26 = getelementptr inbounds nuw %"struct.smt::trans_justification", ptr %25, i32 0, i32 0
  %27 = load ptr, ptr %26, align 8, !tbaa !146
  store ptr %27, ptr %5, align 8, !tbaa !144
  br label %9, !llvm.loop !201

28:                                               ; preds = %9
  ret void
}