; Function Attrs: mustprogress uwtable
define hidden void @_ZN3smt19conflict_resolution18eq_branch2literalsEPNS_5enodeES2_(ptr noundef nonnull align 8 dereferenceable(356) %0, ptr noundef readonly captures(address) %1, ptr noundef readnone captures(address) %2) local_unnamed_addr #4 align 2 {
  %.not7 = icmp eq ptr %1, %2
  br i1 %.not7, label %._crit_edge, label %.lr.ph

.lr.ph:                                           ; preds = %3, %.lr.ph
  %.08 = phi ptr [ %7, %.lr.ph ], [ %1, %3 ]
  %4 = getelementptr inbounds nuw i8, ptr %.08, i64 80
  %5 = load ptr, ptr %4, align 8, !tbaa !124
  %6 = getelementptr inbounds nuw i8, ptr %.08, i64 88
  %.sroa.0.0.copyload = load ptr, ptr %6, align 8, !tbaa !187
  tail call void @_ZN3smt19conflict_resolution25eq_justification2literalsEPNS_5enodeES2_NS_16eq_justificationE(ptr noundef nonnull align 8 dereferenceable(356) %0, ptr noundef %.08, ptr noundef %5, ptr %.sroa.0.0.copyload)
  %7 = load ptr, ptr %4, align 8, !tbaa !124
  %.not = icmp eq ptr %7, %2
  br i1 %.not, label %._crit_edge, label %.lr.ph, !llvm.loop !188

._crit_edge:                                      ; preds = %.lr.ph, %3
  ret void
}